; Function Attrs: mustprogress norecurse uwtable
define internal fastcc void @_ZL4helpPPc(ptr noundef readonly captures(none) %0) unnamed_addr #4 {
  %2 = tail call noundef nonnull align 8 dereferenceable(8) ptr @_ZSt16__ostream_insertIcSt11char_traitsIcEERSt13basic_ostreamIT_T0_ES6_PKS3_l(ptr noundef nonnull align 8 dereferenceable(8) @_ZSt4cout, ptr noundef nonnull @.str.7, i64 noundef 101)
  %3 = tail call noundef nonnull align 8 dereferenceable(8) ptr @_ZSt16__ostream_insertIcSt11char_traitsIcEERSt13basic_ostreamIT_T0_ES6_PKS3_l(ptr noundef nonnull align 8 dereferenceable(8) @_ZSt4cout, ptr noundef nonnull @.str.8, i64 noundef 111)
  %4 = load ptr, ptr @_ZSt4cout, align 8, !tbaa !9
  %5 = getelementptr i8, ptr %4, i64 -24
  %6 = load i64, ptr %5, align 8
  %7 = getelementptr inbounds i8, ptr @_ZSt4cout, i64 %6
  %8 = getelementptr inbounds nuw i8, ptr %7, i64 240
  %9 = load ptr, ptr %8, align 8, !tbaa !11
  %.not.i.i.i = icmp eq ptr %9, null
  br i1 %.not.i.i.i, label %10, label %_ZSt13__check_facetISt5ctypeIcEERKT_PS3_.exit.i.i

10:                                               ; preds = %1
  tail call void @_ZSt16__throw_bad_castv() #23
  unreachable

_ZSt13__check_facetISt5ctypeIcEERKT_PS3_.exit.i.i: ; preds = %1
  %11 = getelementptr inbounds nuw i8, ptr %9, i64 56
  %12 = load i8, ptr %11, align 8, !tbaa !29
  %.not.i1.i.i = icmp eq i8 %12, 0
  br i1 %.not.i1.i.i, label %16, label %13

13:                                               ; preds = %_ZSt13__check_facetISt5ctypeIcEERKT_PS3_.exit.i.i
  %14 = getelementptr inbounds nuw i8, ptr %9, i64 67
  %15 = load i8, ptr %14, align 1, !tbaa !35
  br label %_ZSt4endlIcSt11char_traitsIcEERSt13basic_ostreamIT_T0_ES6_.exit

16:                                               ; preds = %_ZSt13__check_facetISt5ctypeIcEERKT_PS3_.exit.i.i
  tail call void @_ZNKSt5ctypeIcE13_M_widen_initEv(ptr noundef nonnull align 8 dereferenceable(570) %9)
  %17 = load ptr, ptr %9, align 8, !tbaa !9
  %18 = getelementptr inbounds nuw i8, ptr %17, i64 48
  %19 = load ptr, ptr %18, align 8
  %20 = tail call noundef signext i8 %19(ptr noundef nonnull align 8 dereferenceable(570) %9, i8 noundef signext 10)
  br label %_ZSt4endlIcSt11char_traitsIcEERSt13basic_ostreamIT_T0_ES6_.exit

_ZSt4endlIcSt11char_traitsIcEERSt13basic_ostreamIT_T0_ES6_.exit: ; preds = %13, %16
  %.0.i.i.i = phi i8 [ %15, %13 ], [ %20, %16 ]
  %21 = tail call noundef nonnull align 8 dereferenceable(8) ptr @_ZNSo3putEc(ptr noundef nonnull align 8 dereferenceable(8) @_ZSt4cout, i8 noundef signext %.0.i.i.i)
  %22 = tail call noundef nonnull align 8 dereferenceable(8) ptr @_ZNSo5flushEv(ptr noundef nonnull align 8 dereferenceable(8) %21)
  %23 = tail call noundef nonnull align 8 dereferenceable(8) ptr @_ZSt16__ostream_insertIcSt11char_traitsIcEERSt13basic_ostreamIT_T0_ES6_PKS3_l(ptr noundef nonnull align 8 dereferenceable(8) @_ZSt4cout, ptr noundef nonnull @.str.9, i64 noundef 7)
  %24 = load ptr, ptr %0, align 8, !tbaa !4
  %.not.i = icmp eq ptr %24, null
  br i1 %.not.i, label %25, label %33

25:                                               ; preds = %_ZSt4endlIcSt11char_traitsIcEERSt13basic_ostreamIT_T0_ES6_.exit
  %26 = load ptr, ptr @_ZSt4cout, align 8, !tbaa !9
  %27 = getelementptr i8, ptr %26, i64 -24
  %28 = load i64, ptr %27, align 8
  %29 = getelementptr inbounds i8, ptr @_ZSt4cout, i64 %28
  %30 = getelementptr inbounds nuw i8, ptr %29, i64 32
  %31 = load i32, ptr %30, align 8, !tbaa !155
  %32 = or i32 %31, 1
  tail call void @_ZNSt9basic_iosIcSt11char_traitsIcEE5clearESt12_Ios_Iostate(ptr noundef nonnull align 8 dereferenceable(264) %29, i32 noundef %32)
  br label %_ZStlsISt11char_traitsIcEERSt13basic_ostreamIcT_ES5_PKc.exit

33:                                               ; preds = %_ZSt4endlIcSt11char_traitsIcEERSt13basic_ostreamIT_T0_ES6_.exit
  %34 = tail call noundef i64 @strlen(ptr noundef nonnull dereferenceable(1) %24) #22
  %35 = tail call noundef nonnull align 8 dereferenceable(8) ptr @_ZSt16__ostream_insertIcSt11char_traitsIcEERSt13basic_ostreamIT_T0_ES6_PKS3_l(ptr noundef nonnull align 8 dereferenceable(8) @_ZSt4cout, ptr noundef nonnull %24, i64 noundef %34)
  br label %_ZStlsISt11char_traitsIcEERSt13basic_ostreamIcT_ES5_PKc.exit

_ZStlsISt11char_traitsIcEERSt13basic_ostreamIcT_ES5_PKc.exit: ; preds = %25, %33
  %36 = tail call noundef nonnull align 8 dereferenceable(8) ptr @_ZSt16__ostream_insertIcSt11char_traitsIcEERSt13basic_ostreamIT_T0_ES6_PKS3_l(ptr noundef nonnull align 8 dereferenceable(8) @_ZSt4cout, ptr noundef nonnull @.str.10, i64 noundef 23)
  %37 = load ptr, ptr @_ZSt4cout, align 8, !tbaa !9
  %38 = getelementptr i8, ptr %37, i64 -24
  %39 = load i64, ptr %38, align 8
  %40 = getelementptr inbounds i8, ptr @_ZSt4cout, i64 %39
  %41 = getelementptr inbounds nuw i8, ptr %40, i64 240
  %42 = load ptr, ptr %41, align 8, !tbaa !11
  %.not.i.i.i1 = icmp eq ptr %42, null
  br i1 %.not.i.i.i1, label %43, label %_ZSt13__check_facetISt5ctypeIcEERKT_PS3_.exit.i.i2

43:                                               ; preds = %_ZStlsISt11char_traitsIcEERSt13basic_ostreamIcT_ES5_PKc.exit
  tail call void @_ZSt16__throw_bad_castv() #23
  unreachable

_ZSt13__check_facetISt5ctypeIcEERKT_PS3_.exit.i.i2: ; preds = %_ZStlsISt11char_traitsIcEERSt13basic_ostreamIcT_ES5_PKc.exit
  %44 = getelementptr inbounds nuw i8, ptr %42, i64 56
  %45 = load i8, ptr %44, align 8, !tbaa !29
  %.not.i1.i.i3 = icmp eq i8 %45, 0
  br i1 %.not.i1.i.i3, label %49, label %46

46:                                               ; preds = %_ZSt13__check_facetISt5ctypeIcEERKT_PS3_.exit.i.i2
  %47 = getelementptr inbounds nuw i8, ptr %42, i64 67
  %48 = load i8, ptr %47, align 1, !tbaa !35
  br label %_ZSt4endlIcSt11char_traitsIcEERSt13basic_ostreamIT_T0_ES6_.exit5

49:                                               ; preds = %_ZSt13__check_facetISt5ctypeIcEERKT_PS3_.exit.i.i2
  tail call void @_ZNKSt5ctypeIcE13_M_widen_initEv(ptr noundef nonnull align 8 dereferenceable(570) %42)
  %50 = load ptr, ptr %42, align 8, !tbaa !9
  %51 = getelementptr inbounds nuw i8, ptr %50, i64 48
  %52 = load ptr, ptr %51, align 8
  %53 = tail call noundef signext i8 %52(ptr noundef nonnull align 8 dereferenceable(570) %42, i8 noundef signext 10)
  br label %_ZSt4endlIcSt11char_traitsIcEERSt13basic_ostreamIT_T0_ES6_.exit5

_ZSt4endlIcSt11char_traitsIcEERSt13basic_ostreamIT_T0_ES6_.exit5: ; preds = %46, %49
  %.0.i.i.i4 = phi i8 [ %48, %46 ], [ %53, %49 ]
  %54 = tail call noundef nonnull align 8 dereferenceable(8) ptr @_ZNSo3putEc(ptr noundef nonnull align 8 dereferenceable(8) @_ZSt4cout, i8 noundef signext %.0.i.i.i4)
  %55 = tail call noundef nonnull align 8 dereferenceable(8) ptr @_ZNSo5flushEv(ptr noundef nonnull align 8 dereferenceable(8) %54)
  %56 = tail call noundef nonnull align 8 dereferenceable(8) ptr @_ZSt16__ostream_insertIcSt11char_traitsIcEERSt13basic_ostreamIT_T0_ES6_PKS3_l(ptr noundef nonnull align 8 dereferenceable(8) @_ZSt4cout, ptr noundef nonnull @.str.11, i64 noundef 28)
  %57 = load ptr, ptr @_ZSt4cout, align 8, !tbaa !9
  %58 = getelementptr i8, ptr %57, i64 -24
  %59 = load i64, ptr %58, align 8
  %60 = getelementptr inbounds i8, ptr @_ZSt4cout, i64 %59
  %61 = getelementptr inbounds nuw i8, ptr %60, i64 240
  %62 = load ptr, ptr %61, align 8, !tbaa !11
  %.not.i.i.i6 = icmp eq ptr %62, null
  br i1 %.not.i.i.i6, label %63, label %_ZSt13__check_facetISt5ctypeIcEERKT_PS3_.exit.i.i7

63:                                               ; preds = %_ZSt4endlIcSt11char_traitsIcEERSt13basic_ostreamIT_T0_ES6_.exit5
  tail call void @_ZSt16__throw_bad_castv() #23
  unreachable

_ZSt13__check_facetISt5ctypeIcEERKT_PS3_.exit.i.i7: ; preds = %_ZSt4endlIcSt11char_traitsIcEERSt13basic_ostreamIT_T0_ES6_.exit5
  %64 = getelementptr inbounds nuw i8, ptr %62, i64 56
  %65 = load i8, ptr %64, align 8, !tbaa !29
  %.not.i1.i.i8 = icmp eq i8 %65, 0
  br i1 %.not.i1.i.i8, label %69, label %66

66:                                               ; preds = %_ZSt13__check_facetISt5ctypeIcEERKT_PS3_.exit.i.i7
  %67 = getelementptr inbounds nuw i8, ptr %62, i64 67
  %68 = load i8, ptr %67, align 1, !tbaa !35
  br label %_ZSt4endlIcSt11char_traitsIcEERSt13basic_ostreamIT_T0_ES6_.exit10

69:                                               ; preds = %_ZSt13__check_facetISt5ctypeIcEERKT_PS3_.exit.i.i7
  tail call void @_ZNKSt5ctypeIcE13_M_widen_initEv(ptr noundef nonnull align 8 dereferenceable(570) %62)
  %70 = load ptr, ptr %62, align 8, !tbaa !9
  %71 = getelementptr inbounds nuw i8, ptr %70, i64 48
  %72 = load ptr, ptr %71, align 8
  %73 = tail call noundef signext i8 %72(ptr noundef nonnull align 8 dereferenceable(570) %62, i8 noundef signext 10)
  br label %_ZSt4endlIcSt11char_traitsIcEERSt13basic_ostreamIT_T0_ES6_.exit10

_ZSt4endlIcSt11char_traitsIcEERSt13basic_ostreamIT_T0_ES6_.exit10: ; preds = %66, %69
  %.0.i.i.i9 = phi i8 [ %68, %66 ], [ %73, %69 ]
  %74 = tail call noundef nonnull align 8 dereferenceable(8) ptr @_ZNSo3putEc(ptr noundef nonnull align 8 dereferenceable(8) @_ZSt4cout, i8 noundef signext %.0.i.i.i9)
  %75 = tail call noundef nonnull align 8 dereferenceable(8) ptr @_ZNSo5flushEv(ptr noundef nonnull align 8 dereferenceable(8) %74)
  %76 = tail call noundef nonnull align 8 dereferenceable(8) ptr @_ZSt16__ostream_insertIcSt11char_traitsIcEERSt13basic_ostreamIT_T0_ES6_PKS3_l(ptr noundef nonnull align 8 dereferenceable(8) @_ZSt4cout, ptr noundef nonnull @.str.12, i64 noundef 46)
  %77 = load ptr, ptr @_ZSt4cout, align 8, !tbaa !9
  %78 = getelementptr i8, ptr %77, i64 -24
  %79 = load i64, ptr %78, align 8
  %80 = getelementptr inbounds i8, ptr @_ZSt4cout, i64 %79
  %81 = getelementptr inbounds nuw i8, ptr %80, i64 240
  %82 = load ptr, ptr %81, align 8, !tbaa !11
  %.not.i.i.i11 = icmp eq ptr %82, null
  br i1 %.not.i.i.i11, label %83, label %_ZSt13__check_facetISt5ctypeIcEERKT_PS3_.exit.i.i12

83:                                               ; preds = %_ZSt4endlIcSt11char_traitsIcEERSt13basic_ostreamIT_T0_ES6_.exit10
  tail call void @_ZSt16__throw_bad_castv() #23
  unreachable

_ZSt13__check_facetISt5ctypeIcEERKT_PS3_.exit.i.i12: ; preds = %_ZSt4endlIcSt11char_traitsIcEERSt13basic_ostreamIT_T0_ES6_.exit10
  %84 = getelementptr inbounds nuw i8, ptr %82, i64 56
  %85 = load i8, ptr %84, align 8, !tbaa !29
  %.not.i1.i.i13 = icmp eq i8 %85, 0
  br i1 %.not.i1.i.i13, label %89, label %86

86:                                               ; preds = %_ZSt13__check_facetISt5ctypeIcEERKT_PS3_.exit.i.i12
  %87 = getelementptr inbounds nuw i8, ptr %82, i64 67
  %88 = load i8, ptr %87, align 1, !tbaa !35
  br label %_ZSt4endlIcSt11char_traitsIcEERSt13basic_ostreamIT_T0_ES6_.exit15

89:                                               ; preds = %_ZSt13__check_facetISt5ctypeIcEERKT_PS3_.exit.i.i12
  tail call void @_ZNKSt5ctypeIcE13_M_widen_initEv(ptr noundef nonnull align 8 dereferenceable(570) %82)
  %90 = load ptr, ptr %82, align 8, !tbaa !9
  %91 = getelementptr inbounds nuw i8, ptr %90, i64 48
  %92 = load ptr, ptr %91, align 8
  %93 = tail call noundef signext i8 %92(ptr noundef nonnull align 8 dereferenceable(570) %82, i8 noundef signext 10)
  br label %_ZSt4endlIcSt11char_traitsIcEERSt13basic_ostreamIT_T0_ES6_.exit15

_ZSt4endlIcSt11char_traitsIcEERSt13basic_ostreamIT_T0_ES6_.exit15: ; preds = %86, %89
  %.0.i.i.i14 = phi i8 [ %88, %86 ], [ %93, %89 ]
  %94 = tail call noundef nonnull align 8 dereferenceable(8) ptr @_ZNSo3putEc(ptr noundef nonnull align 8 dereferenceable(8) @_ZSt4cout, i8 noundef signext %.0.i.i.i14)
  %95 = tail call noundef nonnull align 8 dereferenceable(8) ptr @_ZNSo5flushEv(ptr noundef nonnull align 8 dereferenceable(8) %94)
  %96 = tail call noundef nonnull align 8 dereferenceable(8) ptr @_ZSt16__ostream_insertIcSt11char_traitsIcEERSt13basic_ostreamIT_T0_ES6_PKS3_l(ptr noundef nonnull align 8 dereferenceable(8) @_ZSt4cout, ptr noundef nonnull @.str.13, i64 noundef 47)
  %97 = load ptr, ptr @_ZSt4cout, align 8, !tbaa !9
  %98 = getelementptr i8, ptr %97, i64 -24
  %99 = load i64, ptr %98, align 8
  %100 = getelementptr inbounds i8, ptr @_ZSt4cout, i64 %99
  %101 = getelementptr inbounds nuw i8, ptr %100, i64 240
  %102 = load ptr, ptr %101, align 8, !tbaa !11
  %.not.i.i.i16 = icmp eq ptr %102, null
  br i1 %.not.i.i.i16, label %103, label %_ZSt13__check_facetISt5ctypeIcEERKT_PS3_.exit.i.i17

103:                                              ; preds = %_ZSt4endlIcSt11char_traitsIcEERSt13basic_ostreamIT_T0_ES6_.exit15
  tail call void @_ZSt16__throw_bad_castv() #23
  unreachable

_ZSt13__check_facetISt5ctypeIcEERKT_PS3_.exit.i.i17: ; preds = %_ZSt4endlIcSt11char_traitsIcEERSt13basic_ostreamIT_T0_ES6_.exit15
  %104 = getelementptr inbounds nuw i8, ptr %102, i64 56
  %105 = load i8, ptr %104, align 8, !tbaa !29
  %.not.i1.i.i18 = icmp eq i8 %105, 0
  br i1 %.not.i1.i.i18, label %109, label %106

106:                                              ; preds = %_ZSt13__check_facetISt5ctypeIcEERKT_PS3_.exit.i.i17
  %107 = getelementptr inbounds nuw i8, ptr %102, i64 67
  %108 = load i8, ptr %107, align 1, !tbaa !35
  br label %_ZSt4endlIcSt11char_traitsIcEERSt13basic_ostreamIT_T0_ES6_.exit20

109:                                              ; preds = %_ZSt13__check_facetISt5ctypeIcEERKT_PS3_.exit.i.i17
  tail call void @_ZNKSt5ctypeIcE13_M_widen_initEv(ptr noundef nonnull align 8 dereferenceable(570) %102)
  %110 = load ptr, ptr %102, align 8, !tbaa !9
  %111 = getelementptr inbounds nuw i8, ptr %110, i64 48
  %112 = load ptr, ptr %111, align 8
  %113 = tail call noundef signext i8 %112(ptr noundef nonnull align 8 dereferenceable(570) %102, i8 noundef signext 10)
  br label %_ZSt4endlIcSt11char_traitsIcEERSt13basic_ostreamIT_T0_ES6_.exit20

_ZSt4endlIcSt11char_traitsIcEERSt13basic_ostreamIT_T0_ES6_.exit20: ; preds = %106, %109
  %.0.i.i.i19 = phi i8 [ %108, %106 ], [ %113, %109 ]
  %114 = tail call noundef nonnull align 8 dereferenceable(8) ptr @_ZNSo3putEc(ptr noundef nonnull align 8 dereferenceable(8) @_ZSt4cout, i8 noundef signext %.0.i.i.i19)
  %115 = tail call noundef nonnull align 8 dereferenceable(8) ptr @_ZNSo5flushEv(ptr noundef nonnull align 8 dereferenceable(8) %114)
  %116 = tail call noundef nonnull align 8 dereferenceable(8) ptr @_ZSt16__ostream_insertIcSt11char_traitsIcEERSt13basic_ostreamIT_T0_ES6_PKS3_l(ptr noundef nonnull align 8 dereferenceable(8) @_ZSt4cout, ptr noundef nonnull @.str.14, i64 noundef 19)
  %117 = load ptr, ptr @_ZSt4cout, align 8, !tbaa !9
  %118 = getelementptr i8, ptr %117, i64 -24
  %119 = load i64, ptr %118, align 8
  %120 = getelementptr inbounds i8, ptr @_ZSt4cout, i64 %119
  %121 = getelementptr inbounds nuw i8, ptr %120, i64 240
  %122 = load ptr, ptr %121, align 8, !tbaa !11
  %.not.i.i.i21 = icmp eq ptr %122, null
  br i1 %.not.i.i.i21, label %123, label %_ZSt13__check_facetISt5ctypeIcEERKT_PS3_.exit.i.i22

123:                                              ; preds = %_ZSt4endlIcSt11char_traitsIcEERSt13basic_ostreamIT_T0_ES6_.exit20
  tail call void @_ZSt16__throw_bad_castv() #23
  unreachable

_ZSt13__check_facetISt5ctypeIcEERKT_PS3_.exit.i.i22: ; preds = %_ZSt4endlIcSt11char_traitsIcEERSt13basic_ostreamIT_T0_ES6_.exit20
  %124 = getelementptr inbounds nuw i8, ptr %122, i64 56
  %125 = load i8, ptr %124, align 8, !tbaa !29
  %.not.i1.i.i23 = icmp eq i8 %125, 0
  br i1 %.not.i1.i.i23, label %129, label %126

126:                                              ; preds = %_ZSt13__check_facetISt5ctypeIcEERKT_PS3_.exit.i.i22
  %127 = getelementptr inbounds nuw i8, ptr %122, i64 67
  %128 = load i8, ptr %127, align 1, !tbaa !35
  br label %_ZSt4endlIcSt11char_traitsIcEERSt13basic_ostreamIT_T0_ES6_.exit25

129:                                              ; preds = %_ZSt13__check_facetISt5ctypeIcEERKT_PS3_.exit.i.i22
  tail call void @_ZNKSt5ctypeIcE13_M_widen_initEv(ptr noundef nonnull align 8 dereferenceable(570) %122)
  %130 = load ptr, ptr %122, align 8, !tbaa !9
  %131 = getelementptr inbounds nuw i8, ptr %130, i64 48
  %132 = load ptr, ptr %131, align 8
  %133 = tail call noundef signext i8 %132(ptr noundef nonnull align 8 dereferenceable(570) %122, i8 noundef signext 10)
  br label %_ZSt4endlIcSt11char_traitsIcEERSt13basic_ostreamIT_T0_ES6_.exit25

_ZSt4endlIcSt11char_traitsIcEERSt13basic_ostreamIT_T0_ES6_.exit25: ; preds = %126, %129
  %.0.i.i.i24 = phi i8 [ %128, %126 ], [ %133, %129 ]
  %134 = tail call noundef nonnull align 8 dereferenceable(8) ptr @_ZNSo3putEc(ptr noundef nonnull align 8 dereferenceable(8) @_ZSt4cout, i8 noundef signext %.0.i.i.i24)
  %135 = tail call noundef nonnull align 8 dereferenceable(8) ptr @_ZNSo5flushEv(ptr noundef nonnull align 8 dereferenceable(8) %134)
  ret void
}